target datalayout = "e-m:e-p270:32:32-p271:32:32-p272:64:64-i64:64-i128:128-f80:128-n8:16:32:64-S128"
target triple = "x86_64-unknown-linux-gnu"

@.str = private unnamed_addr constant [11 x i8] c"FileSystem\00", align 1
@.str.1 = private unnamed_addr constant [15 x i8] c"FileSystemRead\00", align 1
@.str.2 = private unnamed_addr constant [16 x i8] c"FileSystemWrite\00", align 1
@.str.3 = private unnamed_addr constant [13 x i8] c"ChildProcess\00", align 1
@.str.4 = private unnamed_addr constant [14 x i8] c"WorkerThreads\00", align 1
@.str.5 = private unnamed_addr constant [10 x i8] c"Inspector\00", align 1

; Function Attrs: mustprogress nounwind uwtable
define dso_local noundef ptr @_ZN4node10permission10Permission18PermissionToStringENS0_15PermissionScopeE(i32 noundef %perm) #4 align 2 {
entry:
  %retval = alloca ptr, align 8
  %perm.addr = alloca i32, align 4
  store i32 %perm, ptr %perm.addr, align 4
  %0 = load i32, ptr %perm.addr, align 4
  %cmp = icmp eq i32 %0, 0
  br i1 %cmp, label %if.then, label %if.end

if.then:                                          ; preds = %entry
  store ptr @.str, ptr %retval, align 8
  br label %return

if.end:                                           ; preds = %entry
  %1 = load i32, ptr %perm.addr, align 4
  %cmp1 = icmp eq i32 %1, 1
  br i1 %cmp1, label %if.then2, label %if.end3

if.then2:                                         ; preds = %if.end
  store ptr @.str.1, ptr %retval, align 8
  br label %return

if.end3:                                          ; preds = %if.end
  %2 = load i32, ptr %perm.addr, align 4
  %cmp4 = icmp eq i32 %2, 2
  br i1 %cmp4, label %if.then5, label %if.end6

if.then5:                                         ; preds = %if.end3
  store ptr @.str.2, ptr %retval, align 8
  br label %return

if.end6:                                          ; preds = %if.end3
  %3 = load i32, ptr %perm.addr, align 4
  %cmp7 = icmp eq i32 %3, 3
  br i1 %cmp7, label %if.then8, label %if.end9

if.then8:                                         ; preds = %if.end6
  store ptr @.str.3, ptr %retval, align 8
  br label %return

if.end9:                                          ; preds = %if.end6
  %4 = load i32, ptr %perm.addr, align 4
  %cmp10 = icmp eq i32 %4, 4
  br i1 %cmp10, label %if.then11, label %if.end12

if.then11:                                        ; preds = %if.end9
  store ptr @.str.4, ptr %retval, align 8
  br label %return

if.end12:                                         ; preds = %if.end9
  %5 = load i32, ptr %perm.addr, align 4
  %cmp13 = icmp eq i32 %5, 5
  br i1 %cmp13, label %if.then14, label %if.end15

if.then14:                                        ; preds = %if.end12
  store ptr @.str.5, ptr %retval, align 8
  br label %return

if.end15:                                         ; preds = %if.end12
  store ptr null, ptr %retval, align 8
  br label %return

return:                                           ; preds = %if.end15, %if.then14, %if.then11, %if.then8, %if.then5, %if.then2, %if.then
  %6 = load ptr, ptr %retval, align 8
  ret ptr %6
}