; Function Attrs: mustprogress nofree norecurse nosync nounwind willreturn memory(none) uwtable
define dso_local noundef ptr @_ZN4node10permission10Permission18PermissionToStringENS0_15PermissionScopeE(i32 noundef %perm) local_unnamed_addr #3 align 2 {
entry:
  %0 = icmp ult i32 %perm, 6
  br i1 %0, label %switch.lookup, label %return

switch.lookup:                                    ; preds = %entry
  %1 = zext nneg i32 %perm to i64
  %switch.gep = getelementptr inbounds [6 x ptr], ptr @switch.table._ZN4node10permission10Permission17ThrowAccessDeniedEPNS_11EnvironmentENS0_15PermissionScopeERKSt17basic_string_viewIcSt11char_traitsIcEE, i64 0, i64 %1
  %switch.load = load ptr, ptr %switch.gep, align 8
  br label %return

return:                                           ; preds = %entry, %switch.lookup
  %retval.0 = phi ptr [ %switch.load, %switch.lookup ], [ null, %entry ]
  ret ptr %retval.0
}